(dp0
Vengine
p1
S'pdflatex'
p2
sVpackages
p3
c__builtin__
set
p4
((lp5
Vrotating
p6
aVmultirow
p7
aVgraphicx
p8
aVbooktabs
p9
atp10
Rp11
sVfiles_with_guttermarks
p12
g4
((lp13
V/Users/marco/Documents/Courses/201606_Rcourse/Presentations/RR.tex
p14
aS'RR.tex'
p15
atp16
Rp17
sVsynctex
p18
I01
s.